target datalayout = "e-m:e-p270:32:32-p271:32:32-p272:64:64-i64:64-i128:128-f80:128-n8:16:32:64-S128"
target triple = "x86_64-pc-linux-gnu"

%struct._generic_ARKInterp = type { ptr, ptr }
%struct._ARKInterpContent_Lagrange = type { i32, i32, ptr, ptr, i32, double }

; Function Attrs: nounwind uwtable
define double @LBasis(ptr noundef %0, i32 noundef %1, double noundef %2) #0 {
  %4 = alloca ptr, align 8
  %5 = alloca i32, align 4
  %6 = alloca double, align 8
  %7 = alloca i32, align 4
  %8 = alloca double, align 8
  store ptr %0, ptr %4, align 8, !tbaa !8
  store i32 %1, ptr %5, align 4, !tbaa !24
  store double %2, ptr %6, align 8, !tbaa !27
  call void @llvm.lifetime.start.p0(i64 4, ptr %7) #7
  call void @llvm.lifetime.start.p0(i64 8, ptr %8) #7
  store double 1.000000e+00, ptr %8, align 8, !tbaa !27
  store i32 0, ptr %7, align 4, !tbaa !24
  br label %9

9:                                                ; preds = %56, %3
  %10 = load i32, ptr %7, align 4, !tbaa !24
  %11 = load ptr, ptr %4, align 8, !tbaa !8
  %12 = getelementptr inbounds nuw %struct._generic_ARKInterp, ptr %11, i32 0, i32 0
  %13 = load ptr, ptr %12, align 8, !tbaa !35
  %14 = getelementptr inbounds nuw %struct._ARKInterpContent_Lagrange, ptr %13, i32 0, i32 4
  %15 = load i32, ptr %14, align 8, !tbaa !67
  %16 = icmp slt i32 %10, %15
  br i1 %16, label %17, label %59

17:                                               ; preds = %9
  %18 = load i32, ptr %7, align 4, !tbaa !24
  %19 = load i32, ptr %5, align 4, !tbaa !24
  %20 = icmp eq i32 %18, %19
  br i1 %20, label %21, label %22

21:                                               ; preds = %17
  br label %56

22:                                               ; preds = %17
  %23 = load double, ptr %6, align 8, !tbaa !27
  %24 = load ptr, ptr %4, align 8, !tbaa !8
  %25 = getelementptr inbounds nuw %struct._generic_ARKInterp, ptr %24, i32 0, i32 0
  %26 = load ptr, ptr %25, align 8, !tbaa !35
  %27 = getelementptr inbounds nuw %struct._ARKInterpContent_Lagrange, ptr %26, i32 0, i32 3
  %28 = load ptr, ptr %27, align 8, !tbaa !68
  %29 = load i32, ptr %7, align 4, !tbaa !24
  %30 = sext i32 %29 to i64
  %31 = getelementptr inbounds double, ptr %28, i64 %30
  %32 = load double, ptr %31, align 8, !tbaa !27
  %33 = fsub double %23, %32
  %34 = load ptr, ptr %4, align 8, !tbaa !8
  %35 = getelementptr inbounds nuw %struct._generic_ARKInterp, ptr %34, i32 0, i32 0
  %36 = load ptr, ptr %35, align 8, !tbaa !35
  %37 = getelementptr inbounds nuw %struct._ARKInterpContent_Lagrange, ptr %36, i32 0, i32 3
  %38 = load ptr, ptr %37, align 8, !tbaa !68
  %39 = load i32, ptr %5, align 4, !tbaa !24
  %40 = sext i32 %39 to i64
  %41 = getelementptr inbounds double, ptr %38, i64 %40
  %42 = load double, ptr %41, align 8, !tbaa !27
  %43 = load ptr, ptr %4, align 8, !tbaa !8
  %44 = getelementptr inbounds nuw %struct._generic_ARKInterp, ptr %43, i32 0, i32 0
  %45 = load ptr, ptr %44, align 8, !tbaa !35
  %46 = getelementptr inbounds nuw %struct._ARKInterpContent_Lagrange, ptr %45, i32 0, i32 3
  %47 = load ptr, ptr %46, align 8, !tbaa !68
  %48 = load i32, ptr %7, align 4, !tbaa !24
  %49 = sext i32 %48 to i64
  %50 = getelementptr inbounds double, ptr %47, i64 %49
  %51 = load double, ptr %50, align 8, !tbaa !27
  %52 = fsub double %42, %51
  %53 = fdiv double %33, %52
  %54 = load double, ptr %8, align 8, !tbaa !27
  %55 = fmul double %54, %53
  store double %55, ptr %8, align 8, !tbaa !27
  br label %56

56:                                               ; preds = %22, %21
  %57 = load i32, ptr %7, align 4, !tbaa !24
  %58 = add nsw i32 %57, 1
  store i32 %58, ptr %7, align 4, !tbaa !24
  br label %9

59:                                               ; preds = %9
  %60 = load double, ptr %8, align 8, !tbaa !27
  call void @llvm.lifetime.end.p0(i64 8, ptr %8) #7
  call void @llvm.lifetime.end.p0(i64 4, ptr %7) #7
  ret double %60
}