; Function Attrs: nofree norecurse nosync nounwind memory(read, inaccessiblemem: none) uwtable
define double @LBasis(ptr noundef readonly captures(none) %0, i32 noundef %1, double noundef %2) local_unnamed_addr #10 {
  %4 = load ptr, ptr %0, align 8, !tbaa !17
  %5 = getelementptr inbounds nuw i8, ptr %4, i64 24
  %6 = load i32, ptr %5, align 8, !tbaa !57
  %7 = icmp sgt i32 %6, 0
  br i1 %7, label %.lr.ph, label %._crit_edge

.lr.ph:                                           ; preds = %3
  %8 = getelementptr inbounds nuw i8, ptr %4, i64 16
  %9 = sext i32 %1 to i64
  %10 = zext i32 %1 to i64
  %wide.trip.count = zext nneg i32 %6 to i64
  br label %11

11:                                               ; preds = %.lr.ph, %23
  %indvars.iv = phi i64 [ 0, %.lr.ph ], [ %indvars.iv.next, %23 ]
  %.016 = phi double [ 1.000000e+00, %.lr.ph ], [ %.1, %23 ]
  %12 = icmp eq i64 %indvars.iv, %10
  br i1 %12, label %23, label %13

13:                                               ; preds = %11
  %14 = load ptr, ptr %8, align 8, !tbaa !58
  %15 = getelementptr inbounds nuw double, ptr %14, i64 %indvars.iv
  %16 = load double, ptr %15, align 8, !tbaa !47
  %17 = fsub double %2, %16
  %18 = getelementptr inbounds double, ptr %14, i64 %9
  %19 = load double, ptr %18, align 8, !tbaa !47
  %20 = fsub double %19, %16
  %21 = fdiv double %17, %20
  %22 = fmul double %.016, %21
  br label %23

23:                                               ; preds = %11, %13
  %.1 = phi double [ %.016, %11 ], [ %22, %13 ]
  %indvars.iv.next = add nuw nsw i64 %indvars.iv, 1
  %exitcond.not = icmp eq i64 %indvars.iv.next, %wide.trip.count
  br i1 %exitcond.not, label %._crit_edge, label %11

._crit_edge:                                      ; preds = %23, %3
  %.0.lcssa = phi double [ 1.000000e+00, %3 ], [ %.1, %23 ]
  ret double %.0.lcssa
}